; Function Attrs: mustprogress nounwind uwtable
define hidden noundef i32 @_ZN12outputStream7fill_toEi(ptr noundef nonnull align 8 dereferenceable(56) %0, i32 noundef %1) local_unnamed_addr #0 align 2 {
  %3 = getelementptr inbounds i8, ptr %0, i64 16
  %4 = load i32, ptr %3, align 8
  %5 = sub nsw i32 %1, %4
  %6 = tail call noundef i32 @llvm.smax.i32(i32 %5, i32 0)
  %.not = icmp slt i32 %5, 1
  br i1 %.not, label %_ZN12outputStream2spEi.exit, label %.preheader.i

.preheader.i:                                     ; preds = %2, %.preheader.i
  %.0.i = phi i32 [ %12, %.preheader.i ], [ %6, %2 ]
  %7 = tail call i32 @llvm.umin.i32(i32 %.0.i, i32 8)
  %8 = zext nneg i32 %7 to i64
  %9 = load ptr, ptr %0, align 8
  %10 = getelementptr inbounds i8, ptr %9, i64 8
  %11 = load ptr, ptr %10, align 8
  tail call void %11(ptr noundef nonnull align 8 dereferenceable(56) %0, ptr noundef nonnull @.str.4, i64 noundef %8) #21
  %12 = sub nsw i32 %.0.i, %7
  %.old1.i = icmp sgt i32 %12, 0
  br i1 %.old1.i, label %.preheader.i, label %_ZN12outputStream2spEi.exit

_ZN12outputStream2spEi.exit:                      ; preds = %.preheader.i, %2
  ret i32 %6
}